target datalayout = "e-m:e-p270:32:32-p271:32:32-p272:64:64-i64:64-i128:128-f80:128-n8:16:32:64-S128"
target triple = "x86_64-pc-linux-gnu"

%"struct.absl::debugging_internal::State" = type { ptr, ptr, i32, i32, i32, %"struct.absl::debugging_internal::ParseState" }
%"struct.absl::debugging_internal::ParseState" = type { i32, i32, i32, i32 }

; Function Attrs: mustprogress nounwind uwtable
define internal noundef i64 @_ZN4absl18debugging_internalL6StrLenEPKc(ptr noundef %0) #3 {
  %2 = alloca ptr, align 8
  %3 = alloca i64, align 8
  store ptr %0, ptr %2, align 8, !tbaa !4
  call void @llvm.lifetime.start.p0(i64 8, ptr %3) #12
  store i64 0, ptr %3, align 8, !tbaa !9
  br label %4

4:                                                ; preds = %9, %1
  %5 = load ptr, ptr %2, align 8, !tbaa !4
  %6 = load i8, ptr %5, align 1, !tbaa !11
  %7 = sext i8 %6 to i32
  %8 = icmp ne i32 %7, 0
  br i1 %8, label %9, label %14

9:                                                ; preds = %4
  %10 = load ptr, ptr %2, align 8, !tbaa !4
  %11 = getelementptr inbounds nuw i8, ptr %10, i32 1
  store ptr %11, ptr %2, align 8, !tbaa !4
  %12 = load i64, ptr %3, align 8, !tbaa !9
  %13 = add i64 %12, 1
  store i64 %13, ptr %3, align 8, !tbaa !9
  br label %4, !llvm.loop !67

14:                                               ; preds = %4
  %15 = load i64, ptr %3, align 8, !tbaa !9
  call void @llvm.lifetime.end.p0(i64 8, ptr %3) #12
  ret i64 %15
}

; Function Attrs: mustprogress uwtable
define internal noundef zeroext i1 @_ZN4absl18debugging_internalL11MaybeAppendEPNS0_5StateEPKc(ptr noundef %0, ptr noundef %1) #0 {
  %3 = alloca ptr, align 8
  %4 = alloca ptr, align 8
  %5 = alloca i64, align 8
  store ptr %0, ptr %3, align 8, !tbaa !16
  store ptr %1, ptr %4, align 8, !tbaa !4
  %6 = load ptr, ptr %3, align 8, !tbaa !16
  %7 = getelementptr inbounds nuw %"struct.absl::debugging_internal::State", ptr %6, i32 0, i32 5
  %8 = getelementptr inbounds nuw %"struct.absl::debugging_internal::ParseState", ptr %7, i32 0, i32 3
  %9 = load i32, ptr %8, align 4
  %10 = lshr i32 %9, 31
  %11 = icmp ne i32 %10, 0
  br i1 %11, label %12, label %18

12:                                               ; preds = %2
  call void @llvm.lifetime.start.p0(i64 8, ptr %5) #12
  %13 = load ptr, ptr %4, align 8, !tbaa !4
  %14 = call noundef i64 @_ZN4absl18debugging_internalL6StrLenEPKc(ptr noundef %13)
  store i64 %14, ptr %5, align 8, !tbaa !9
  %15 = load ptr, ptr %3, align 8, !tbaa !16
  %16 = load ptr, ptr %4, align 8, !tbaa !4
  %17 = load i64, ptr %5, align 8, !tbaa !9
  call void @_ZN4absl18debugging_internalL21MaybeAppendWithLengthEPNS0_5StateEPKcm(ptr noundef %15, ptr noundef %16, i64 noundef %17)
  call void @llvm.lifetime.end.p0(i64 8, ptr %5) #12
  br label %18

18:                                               ; preds = %12, %2
  ret i1 true
}