; Function Attrs: mustprogress nofree norecurse nosync nounwind memory(readwrite, inaccessiblemem: none) uwtable
define internal fastcc void @_ZN4absl18debugging_internalL11MaybeAppendEPNS0_5StateEPKc(ptr noundef captures(none) %0, ptr noundef readonly captures(none) %1) unnamed_addr #4 {
  %3 = getelementptr inbounds nuw i8, ptr %0, i64 40
  %4 = load i32, ptr %3, align 4
  %.not = icmp sgt i32 %4, -1
  br i1 %.not, label %10, label %5

5:                                                ; preds = %2
  %6 = load i8, ptr %1, align 1, !tbaa !4
  %.not4.i = icmp eq i8 %6, 0
  br i1 %.not4.i, label %_ZN4absl18debugging_internalL6StrLenEPKc.exit, label %.lr.ph.i

.lr.ph.i:                                         ; preds = %5, %.lr.ph.i
  %.06.i = phi i64 [ %8, %.lr.ph.i ], [ 0, %5 ]
  %.035.i = phi ptr [ %7, %.lr.ph.i ], [ %1, %5 ]
  %7 = getelementptr inbounds nuw i8, ptr %.035.i, i64 1
  %8 = add i64 %.06.i, 1
  %9 = load i8, ptr %7, align 1, !tbaa !4
  %.not.i = icmp eq i8 %9, 0
  br i1 %.not.i, label %_ZN4absl18debugging_internalL6StrLenEPKc.exit, label %.lr.ph.i, !llvm.loop !22

_ZN4absl18debugging_internalL6StrLenEPKc.exit:    ; preds = %.lr.ph.i, %5
  %.0.lcssa.i = phi i64 [ 0, %5 ], [ %8, %.lr.ph.i ]
  tail call fastcc void @_ZN4absl18debugging_internalL21MaybeAppendWithLengthEPNS0_5StateEPKcm(ptr noundef %0, ptr noundef nonnull %1, i64 noundef %.0.lcssa.i)
  br label %10

10:                                               ; preds = %_ZN4absl18debugging_internalL6StrLenEPKc.exit, %2
  ret void
}